; Function Attrs: nounwind uwtable
define nonnull ptr @l___private_Std_Net_Addr_0__Std_Net_decEqIPAddr____x40_Std_Net_Addr___hyg_730____boxed(ptr noundef %0, ptr noundef %1) local_unnamed_addr #0 {
  %3 = ptrtoint ptr %0 to i64
  %4 = and i64 %3, 1
  %.not.i.i = icmp eq i64 %4, 0
  br i1 %.not.i.i, label %8, label %5

5:                                                ; preds = %2
  %6 = lshr i64 %3, 1
  %7 = trunc i64 %6 to i32
  br label %lean_obj_tag.exit.i

8:                                                ; preds = %2
  %9 = getelementptr i8, ptr %0, i64 4
  %.val.i.i = load i32, ptr %9, align 4
  %10 = lshr i32 %.val.i.i, 24
  br label %lean_obj_tag.exit.i

lean_obj_tag.exit.i:                              ; preds = %8, %5
  %.0.i.i = phi i32 [ %7, %5 ], [ %10, %8 ]
  %11 = icmp eq i32 %.0.i.i, 0
  %12 = ptrtoint ptr %1 to i64
  %13 = and i64 %12, 1
  %.not.i17.i = icmp eq i64 %13, 0
  br i1 %11, label %14, label %22

14:                                               ; preds = %lean_obj_tag.exit.i
  br i1 %.not.i17.i, label %18, label %15

15:                                               ; preds = %14
  %16 = lshr i64 %12, 1
  %17 = trunc i64 %16 to i32
  br label %lean_obj_tag.exit20.i

18:                                               ; preds = %14
  %19 = getelementptr i8, ptr %1, i64 4
  %.val.i19.i = load i32, ptr %19, align 4
  %20 = lshr i32 %.val.i19.i, 24
  br label %lean_obj_tag.exit20.i

lean_obj_tag.exit20.i:                            ; preds = %18, %15
  %.0.i18.i = phi i32 [ %17, %15 ], [ %20, %18 ]
  %21 = icmp eq i32 %.0.i18.i, 0
  br i1 %21, label %.sink.split.i, label %l___private_Std_Net_Addr_0__Std_Net_decEqIPAddr____x40_Std_Net_Addr___hyg_730_.exit

22:                                               ; preds = %lean_obj_tag.exit.i
  br i1 %.not.i17.i, label %26, label %23

23:                                               ; preds = %22
  %24 = lshr i64 %12, 1
  %25 = trunc i64 %24 to i32
  br label %lean_obj_tag.exit24.i

26:                                               ; preds = %22
  %27 = getelementptr i8, ptr %1, i64 4
  %.val.i23.i = load i32, ptr %27, align 4
  %28 = lshr i32 %.val.i23.i, 24
  br label %lean_obj_tag.exit24.i

lean_obj_tag.exit24.i:                            ; preds = %26, %23
  %.0.i22.i = phi i32 [ %25, %23 ], [ %28, %26 ]
  %29 = icmp eq i32 %.0.i22.i, 0
  br i1 %29, label %l___private_Std_Net_Addr_0__Std_Net_decEqIPAddr____x40_Std_Net_Addr___hyg_730_.exit, label %.sink.split.i

.sink.split.i:                                    ; preds = %lean_obj_tag.exit24.i, %lean_obj_tag.exit20.i
  %l___private_Init_Data_Vector_Basic_0__decEqVector____x40_Init_Data_Vector_Basic___hyg_100____at___private_Std_Net_Addr_0__Std_Net_decEqIPv6Addr____x40_Std_Net_Addr___hyg_433____spec__1___rarg___closed__1.sink.i = phi ptr [ @l___private_Init_Data_Vector_Basic_0__decEqVector____x40_Init_Data_Vector_Basic___hyg_100____at___private_Std_Net_Addr_0__Std_Net_decEqMACAddr____x40_Std_Net_Addr___hyg_29____spec__1___rarg___closed__1, %lean_obj_tag.exit20.i ], [ @l___private_Init_Data_Vector_Basic_0__decEqVector____x40_Init_Data_Vector_Basic___hyg_100____at___private_Std_Net_Addr_0__Std_Net_decEqIPv6Addr____x40_Std_Net_Addr___hyg_433____spec__1___rarg___closed__1, %lean_obj_tag.exit24.i ]
  %30 = getelementptr inbounds nuw i8, ptr %0, i64 8
  %31 = load ptr, ptr %30, align 8, !tbaa !4
  %32 = getelementptr inbounds nuw i8, ptr %1, i64 8
  %33 = load ptr, ptr %32, align 8, !tbaa !4
  %34 = load ptr, ptr %l___private_Init_Data_Vector_Basic_0__decEqVector____x40_Init_Data_Vector_Basic___hyg_100____at___private_Std_Net_Addr_0__Std_Net_decEqIPv6Addr____x40_Std_Net_Addr___hyg_433____spec__1___rarg___closed__1.sink.i, align 8, !tbaa !4
  %35 = tail call zeroext i8 @l_Array_instDecidableEq___rarg(ptr noundef %34, ptr noundef %31, ptr noundef %33) #7
  %36 = zext i8 %35 to i64
  %37 = shl nuw nsw i64 %36, 1
  %38 = or disjoint i64 %37, 1
  br label %l___private_Std_Net_Addr_0__Std_Net_decEqIPAddr____x40_Std_Net_Addr___hyg_730_.exit

l___private_Std_Net_Addr_0__Std_Net_decEqIPAddr____x40_Std_Net_Addr___hyg_730_.exit: ; preds = %lean_obj_tag.exit20.i, %lean_obj_tag.exit24.i, %.sink.split.i
  %.0.i = phi i64 [ 1, %lean_obj_tag.exit20.i ], [ 1, %lean_obj_tag.exit24.i ], [ %38, %.sink.split.i ]
  br i1 %.not.i17.i, label %39, label %lean_dec.exit5

39:                                               ; preds = %l___private_Std_Net_Addr_0__Std_Net_decEqIPAddr____x40_Std_Net_Addr___hyg_730_.exit
  %40 = load i32, ptr %1, align 4, !tbaa !8
  %41 = icmp sgt i32 %40, 1
  br i1 %41, label %42, label %44, !prof !13

42:                                               ; preds = %39
  %43 = add nsw i32 %40, -1
  store i32 %43, ptr %1, align 4, !tbaa !8
  br label %lean_dec.exit5

44:                                               ; preds = %39
  %.not.i = icmp eq i32 %40, 0
  br i1 %.not.i, label %lean_dec.exit5, label %45

45:                                               ; preds = %44
  tail call void @lean_dec_ref_cold(ptr noundef nonnull %1) #7
  br label %lean_dec.exit5

lean_dec.exit5:                                   ; preds = %45, %44, %42, %l___private_Std_Net_Addr_0__Std_Net_decEqIPAddr____x40_Std_Net_Addr___hyg_730_.exit
  br i1 %.not.i.i, label %46, label %lean_dec.exit

46:                                               ; preds = %lean_dec.exit5
  %47 = load i32, ptr %0, align 4, !tbaa !8
  %48 = icmp sgt i32 %47, 1
  br i1 %48, label %49, label %51, !prof !13

49:                                               ; preds = %46
  %50 = add nsw i32 %47, -1
  store i32 %50, ptr %0, align 4, !tbaa !8
  br label %lean_dec.exit

51:                                               ; preds = %46
  %.not.i6 = icmp eq i32 %47, 0
  br i1 %.not.i6, label %lean_dec.exit, label %52

52:                                               ; preds = %51
  tail call void @lean_dec_ref_cold(ptr noundef nonnull %0) #7
  br label %lean_dec.exit

lean_dec.exit:                                    ; preds = %52, %51, %49, %lean_dec.exit5
  %53 = inttoptr i64 %.0.i to ptr
  ret ptr %53
}